target datalayout = "e-m:e-p270:32:32-p271:32:32-p272:64:64-i64:64-i128:128-f80:128-n8:16:32:64-S128"
target triple = "x86_64-pc-linux-gnu"

%struct.evp_encode_ctx_st = type { i32, i32, [80 x i8], i32, i32 }

@data_bin2ascii = internal constant [65 x i8] c"ABCDEFGHIJKLMNOPQRSTUVWXYZabcdefghijklmnopqrstuvwxyz0123456789+/\00", align 16

; Function Attrs: nounwind uwtable
define hidden i64 @EVP_EncodeBlock(ptr noundef %0, ptr noundef %1, i64 noundef %2) #0 {
  %4 = alloca ptr, align 8
  %5 = alloca ptr, align 8
  %6 = alloca i64, align 8
  %7 = alloca i32, align 4
  %8 = alloca i64, align 8
  %9 = alloca i64, align 8
  store ptr %0, ptr %4, align 8, !tbaa !16
  store ptr %1, ptr %5, align 8, !tbaa !16
  store i64 %2, ptr %6, align 8, !tbaa !20
  call void @llvm.lifetime.start.p0(i64 4, ptr %7) #3
  call void @llvm.lifetime.start.p0(i64 8, ptr %8) #3
  %10 = load i64, ptr %6, align 8, !tbaa !20
  store i64 %10, ptr %8, align 8, !tbaa !20
  call void @llvm.lifetime.start.p0(i64 8, ptr %9) #3
  store i64 0, ptr %9, align 8, !tbaa !20
  br label %11

11:                                               ; preds = %118, %3
  %12 = load i64, ptr %8, align 8, !tbaa !20
  %13 = icmp ne i64 %12, 0
  br i1 %13, label %14, label %123

14:                                               ; preds = %11
  %15 = load i64, ptr %8, align 8, !tbaa !20
  %16 = icmp uge i64 %15, 3
  br i1 %16, label %17, label %67

17:                                               ; preds = %14
  %18 = load ptr, ptr %5, align 8, !tbaa !16
  %19 = getelementptr inbounds i8, ptr %18, i64 0
  %20 = load i8, ptr %19, align 1, !tbaa !23
  %21 = zext i8 %20 to i32
  %22 = shl i32 %21, 16
  %23 = load ptr, ptr %5, align 8, !tbaa !16
  %24 = getelementptr inbounds i8, ptr %23, i64 1
  %25 = load i8, ptr %24, align 1, !tbaa !23
  %26 = zext i8 %25 to i32
  %27 = shl i32 %26, 8
  %28 = or i32 %22, %27
  %29 = load ptr, ptr %5, align 8, !tbaa !16
  %30 = getelementptr inbounds i8, ptr %29, i64 2
  %31 = load i8, ptr %30, align 1, !tbaa !23
  %32 = zext i8 %31 to i32
  %33 = or i32 %28, %32
  store i32 %33, ptr %7, align 4, !tbaa !22
  %34 = load i32, ptr %7, align 4, !tbaa !22
  %35 = lshr i32 %34, 18
  %36 = and i32 %35, 63
  %37 = zext i32 %36 to i64
  %38 = getelementptr inbounds nuw [65 x i8], ptr @data_bin2ascii, i64 0, i64 %37
  %39 = load i8, ptr %38, align 1, !tbaa !23
  %40 = load ptr, ptr %4, align 8, !tbaa !16
  %41 = getelementptr inbounds nuw i8, ptr %40, i32 1
  store ptr %41, ptr %4, align 8, !tbaa !16
  store i8 %39, ptr %40, align 1, !tbaa !23
  %42 = load i32, ptr %7, align 4, !tbaa !22
  %43 = lshr i32 %42, 12
  %44 = and i32 %43, 63
  %45 = zext i32 %44 to i64
  %46 = getelementptr inbounds nuw [65 x i8], ptr @data_bin2ascii, i64 0, i64 %45
  %47 = load i8, ptr %46, align 1, !tbaa !23
  %48 = load ptr, ptr %4, align 8, !tbaa !16
  %49 = getelementptr inbounds nuw i8, ptr %48, i32 1
  store ptr %49, ptr %4, align 8, !tbaa !16
  store i8 %47, ptr %48, align 1, !tbaa !23
  %50 = load i32, ptr %7, align 4, !tbaa !22
  %51 = lshr i32 %50, 6
  %52 = and i32 %51, 63
  %53 = zext i32 %52 to i64
  %54 = getelementptr inbounds nuw [65 x i8], ptr @data_bin2ascii, i64 0, i64 %53
  %55 = load i8, ptr %54, align 1, !tbaa !23
  %56 = load ptr, ptr %4, align 8, !tbaa !16
  %57 = getelementptr inbounds nuw i8, ptr %56, i32 1
  store ptr %57, ptr %4, align 8, !tbaa !16
  store i8 %55, ptr %56, align 1, !tbaa !23
  %58 = load i32, ptr %7, align 4, !tbaa !22
  %59 = and i32 %58, 63
  %60 = zext i32 %59 to i64
  %61 = getelementptr inbounds nuw [65 x i8], ptr @data_bin2ascii, i64 0, i64 %60
  %62 = load i8, ptr %61, align 1, !tbaa !23
  %63 = load ptr, ptr %4, align 8, !tbaa !16
  %64 = getelementptr inbounds nuw i8, ptr %63, i32 1
  store ptr %64, ptr %4, align 8, !tbaa !16
  store i8 %62, ptr %63, align 1, !tbaa !23
  %65 = load i64, ptr %8, align 8, !tbaa !20
  %66 = sub i64 %65, 3
  store i64 %66, ptr %8, align 8, !tbaa !20
  br label %118

67:                                               ; preds = %14
  %68 = load ptr, ptr %5, align 8, !tbaa !16
  %69 = getelementptr inbounds i8, ptr %68, i64 0
  %70 = load i8, ptr %69, align 1, !tbaa !23
  %71 = zext i8 %70 to i32
  %72 = shl i32 %71, 16
  store i32 %72, ptr %7, align 4, !tbaa !22
  %73 = load i64, ptr %8, align 8, !tbaa !20
  %74 = icmp eq i64 %73, 2
  br i1 %74, label %75, label %83

75:                                               ; preds = %67
  %76 = load ptr, ptr %5, align 8, !tbaa !16
  %77 = getelementptr inbounds i8, ptr %76, i64 1
  %78 = load i8, ptr %77, align 1, !tbaa !23
  %79 = zext i8 %78 to i32
  %80 = shl i32 %79, 8
  %81 = load i32, ptr %7, align 4, !tbaa !22
  %82 = or i32 %81, %80
  store i32 %82, ptr %7, align 4, !tbaa !22
  br label %83

83:                                               ; preds = %75, %67
  %84 = load i32, ptr %7, align 4, !tbaa !22
  %85 = lshr i32 %84, 18
  %86 = and i32 %85, 63
  %87 = zext i32 %86 to i64
  %88 = getelementptr inbounds nuw [65 x i8], ptr @data_bin2ascii, i64 0, i64 %87
  %89 = load i8, ptr %88, align 1, !tbaa !23
  %90 = load ptr, ptr %4, align 8, !tbaa !16
  %91 = getelementptr inbounds nuw i8, ptr %90, i32 1
  store ptr %91, ptr %4, align 8, !tbaa !16
  store i8 %89, ptr %90, align 1, !tbaa !23
  %92 = load i32, ptr %7, align 4, !tbaa !22
  %93 = lshr i32 %92, 12
  %94 = and i32 %93, 63
  %95 = zext i32 %94 to i64
  %96 = getelementptr inbounds nuw [65 x i8], ptr @data_bin2ascii, i64 0, i64 %95
  %97 = load i8, ptr %96, align 1, !tbaa !23
  %98 = load ptr, ptr %4, align 8, !tbaa !16
  %99 = getelementptr inbounds nuw i8, ptr %98, i32 1
  store ptr %99, ptr %4, align 8, !tbaa !16
  store i8 %97, ptr %98, align 1, !tbaa !23
  %100 = load i64, ptr %8, align 8, !tbaa !20
  %101 = icmp eq i64 %100, 1
  br i1 %101, label %102, label %103

102:                                              ; preds = %83
  br label %111

103:                                              ; preds = %83
  %104 = load i32, ptr %7, align 4, !tbaa !22
  %105 = lshr i32 %104, 6
  %106 = and i32 %105, 63
  %107 = zext i32 %106 to i64
  %108 = getelementptr inbounds nuw [65 x i8], ptr @data_bin2ascii, i64 0, i64 %107
  %109 = load i8, ptr %108, align 1, !tbaa !23
  %110 = zext i8 %109 to i32
  br label %111

111:                                              ; preds = %103, %102
  %112 = phi i32 [ 61, %102 ], [ %110, %103 ]
  %113 = trunc i32 %112 to i8
  %114 = load ptr, ptr %4, align 8, !tbaa !16
  %115 = getelementptr inbounds nuw i8, ptr %114, i32 1
  store ptr %115, ptr %4, align 8, !tbaa !16
  store i8 %113, ptr %114, align 1, !tbaa !23
  %116 = load ptr, ptr %4, align 8, !tbaa !16
  %117 = getelementptr inbounds nuw i8, ptr %116, i32 1
  store ptr %117, ptr %4, align 8, !tbaa !16
  store i8 61, ptr %116, align 1, !tbaa !23
  store i64 0, ptr %8, align 8, !tbaa !20
  br label %118

118:                                              ; preds = %111, %17
  %119 = load i64, ptr %9, align 8, !tbaa !20
  %120 = add i64 %119, 4
  store i64 %120, ptr %9, align 8, !tbaa !20
  %121 = load ptr, ptr %5, align 8, !tbaa !16
  %122 = getelementptr inbounds i8, ptr %121, i64 3
  store ptr %122, ptr %5, align 8, !tbaa !16
  br label %11, !llvm.loop !26

123:                                              ; preds = %11
  %124 = load ptr, ptr %4, align 8, !tbaa !16
  store i8 0, ptr %124, align 1, !tbaa !23
  %125 = load i64, ptr %9, align 8, !tbaa !20
  call void @llvm.lifetime.end.p0(i64 8, ptr %9) #3
  call void @llvm.lifetime.end.p0(i64 8, ptr %8) #3
  call void @llvm.lifetime.end.p0(i64 4, ptr %7) #3
  ret i64 %125
}

; Function Attrs: nounwind uwtable
define hidden void @EVP_EncodeFinal(ptr noundef %0, ptr noundef %1, ptr noundef %2) #0 {
  %4 = alloca ptr, align 8
  %5 = alloca ptr, align 8
  %6 = alloca ptr, align 8
  %7 = alloca i32, align 4
  store ptr %0, ptr %4, align 8, !tbaa !6
  store ptr %1, ptr %5, align 8, !tbaa !16
  store ptr %2, ptr %6, align 8, !tbaa !18
  call void @llvm.lifetime.start.p0(i64 4, ptr %7) #3
  store i32 0, ptr %7, align 4, !tbaa !22
  %8 = load ptr, ptr %4, align 8, !tbaa !6
  %9 = getelementptr inbounds nuw %struct.evp_encode_ctx_st, ptr %8, i32 0, i32 0
  %10 = load i32, ptr %9, align 4, !tbaa !14
  %11 = icmp ne i32 %10, 0
  br i1 %11, label %12, label %34

12:                                               ; preds = %3
  %13 = load ptr, ptr %5, align 8, !tbaa !16
  %14 = load ptr, ptr %4, align 8, !tbaa !6
  %15 = getelementptr inbounds nuw %struct.evp_encode_ctx_st, ptr %14, i32 0, i32 2
  %16 = getelementptr inbounds [80 x i8], ptr %15, i64 0, i64 0
  %17 = load ptr, ptr %4, align 8, !tbaa !6
  %18 = getelementptr inbounds nuw %struct.evp_encode_ctx_st, ptr %17, i32 0, i32 0
  %19 = load i32, ptr %18, align 4, !tbaa !14
  %20 = zext i32 %19 to i64
  %21 = call i64 @EVP_EncodeBlock(ptr noundef %13, ptr noundef %16, i64 noundef %20)
  %22 = trunc i64 %21 to i32
  store i32 %22, ptr %7, align 4, !tbaa !22
  %23 = load ptr, ptr %5, align 8, !tbaa !16
  %24 = load i32, ptr %7, align 4, !tbaa !22
  %25 = add i32 %24, 1
  store i32 %25, ptr %7, align 4, !tbaa !22
  %26 = zext i32 %24 to i64
  %27 = getelementptr inbounds nuw i8, ptr %23, i64 %26
  store i8 10, ptr %27, align 1, !tbaa !23
  %28 = load ptr, ptr %5, align 8, !tbaa !16
  %29 = load i32, ptr %7, align 4, !tbaa !22
  %30 = zext i32 %29 to i64
  %31 = getelementptr inbounds nuw i8, ptr %28, i64 %30
  store i8 0, ptr %31, align 1, !tbaa !23
  %32 = load ptr, ptr %4, align 8, !tbaa !6
  %33 = getelementptr inbounds nuw %struct.evp_encode_ctx_st, ptr %32, i32 0, i32 0
  store i32 0, ptr %33, align 4, !tbaa !14
  br label %34

34:                                               ; preds = %12, %3
  %35 = load i32, ptr %7, align 4, !tbaa !22
  %36 = load ptr, ptr %6, align 8, !tbaa !18
  store i32 %35, ptr %36, align 4, !tbaa !22
  call void @llvm.lifetime.end.p0(i64 4, ptr %7) #3
  ret void
}