; Function Attrs: nofree norecurse nosync nounwind memory(argmem: readwrite) uwtable
define hidden void @EVP_EncodeFinal(ptr noundef captures(none) %0, ptr noundef writeonly captures(none) %1, ptr noundef writeonly captures(none) %2) local_unnamed_addr #1 {
  %4 = load i32, ptr %0, align 4, !tbaa !11
  %.not = icmp eq i32 %4, 0
  br i1 %.not, label %82, label %5

5:                                                ; preds = %3
  %6 = getelementptr inbounds nuw i8, ptr %0, i64 8
  %7 = zext i32 %4 to i64
  br label %.lr.ph.i

.lr.ph.i:                                         ; preds = %5, %42
  %.040.i = phi i64 [ %74, %42 ], [ 0, %5 ]
  %.03039.i = phi i64 [ %73, %42 ], [ %7, %5 ]
  %.03238.i = phi ptr [ %.133.i, %42 ], [ %1, %5 ]
  %.03436.i = phi ptr [ %75, %42 ], [ %6, %5 ]
  %8 = icmp ugt i64 %.03039.i, 2
  %9 = load i8, ptr %.03436.i, align 1, !tbaa !14
  %10 = zext i8 %9 to i32
  %11 = shl nuw nsw i32 %10, 16
  br i1 %8, label %42, label %12

12:                                               ; preds = %.lr.ph.i
  %13 = icmp eq i64 %.03039.i, 2
  br i1 %13, label %14, label %20

14:                                               ; preds = %12
  %15 = getelementptr inbounds nuw i8, ptr %.03436.i, i64 1
  %16 = load i8, ptr %15, align 1, !tbaa !14
  %17 = zext i8 %16 to i32
  %18 = shl nuw nsw i32 %17, 8
  %19 = or disjoint i32 %18, %11
  br label %20

20:                                               ; preds = %14, %12
  %.031.i = phi i32 [ %19, %14 ], [ %11, %12 ]
  %21 = lshr i32 %.031.i, 18
  %22 = zext nneg i32 %21 to i64
  %23 = getelementptr inbounds nuw [65 x i8], ptr @data_bin2ascii, i64 0, i64 %22
  %24 = load i8, ptr %23, align 1, !tbaa !14
  %25 = getelementptr inbounds nuw i8, ptr %.03238.i, i64 1
  store i8 %24, ptr %.03238.i, align 1, !tbaa !14
  %26 = lshr i32 %.031.i, 12
  %27 = and i32 %26, 63
  %28 = zext nneg i32 %27 to i64
  %29 = getelementptr inbounds nuw [65 x i8], ptr @data_bin2ascii, i64 0, i64 %28
  %30 = load i8, ptr %29, align 1, !tbaa !14
  %31 = getelementptr inbounds nuw i8, ptr %.03238.i, i64 2
  store i8 %30, ptr %25, align 1, !tbaa !14
  %32 = icmp eq i64 %.03039.i, 1
  br i1 %32, label %.thread.i, label %33

33:                                               ; preds = %20
  %34 = lshr i32 %.031.i, 6
  %35 = and i32 %34, 63
  %36 = zext nneg i32 %35 to i64
  %37 = getelementptr inbounds nuw [65 x i8], ptr @data_bin2ascii, i64 0, i64 %36
  %38 = load i8, ptr %37, align 1, !tbaa !14
  br label %.thread.i

.thread.i:                                        ; preds = %33, %20
  %39 = phi i8 [ %38, %33 ], [ 61, %20 ]
  %40 = getelementptr inbounds nuw i8, ptr %.03238.i, i64 3
  store i8 %39, ptr %31, align 1, !tbaa !14
  store i8 61, ptr %40, align 1, !tbaa !14
  %.13343.i = getelementptr inbounds nuw i8, ptr %.03238.i, i64 4
  %41 = add nuw i64 %.040.i, 4
  br label %EVP_EncodeBlock.exit

42:                                               ; preds = %.lr.ph.i
  %43 = getelementptr inbounds nuw i8, ptr %.03436.i, i64 1
  %44 = load i8, ptr %43, align 1, !tbaa !14
  %45 = zext i8 %44 to i32
  %46 = shl nuw nsw i32 %45, 8
  %47 = getelementptr inbounds nuw i8, ptr %.03436.i, i64 2
  %48 = load i8, ptr %47, align 1, !tbaa !14
  %49 = zext i8 %48 to i32
  %50 = or disjoint i32 %46, %49
  %51 = or disjoint i32 %46, %11
  %52 = lshr i32 %10, 2
  %53 = zext nneg i32 %52 to i64
  %54 = getelementptr inbounds nuw [65 x i8], ptr @data_bin2ascii, i64 0, i64 %53
  %55 = load i8, ptr %54, align 1, !tbaa !14
  %56 = getelementptr inbounds nuw i8, ptr %.03238.i, i64 1
  store i8 %55, ptr %.03238.i, align 1, !tbaa !14
  %57 = lshr i32 %51, 12
  %58 = and i32 %57, 63
  %59 = zext nneg i32 %58 to i64
  %60 = getelementptr inbounds nuw [65 x i8], ptr @data_bin2ascii, i64 0, i64 %59
  %61 = load i8, ptr %60, align 1, !tbaa !14
  %62 = getelementptr inbounds nuw i8, ptr %.03238.i, i64 2
  store i8 %61, ptr %56, align 1, !tbaa !14
  %63 = lshr i32 %50, 6
  %64 = and i32 %63, 63
  %65 = zext nneg i32 %64 to i64
  %66 = getelementptr inbounds nuw [65 x i8], ptr @data_bin2ascii, i64 0, i64 %65
  %67 = load i8, ptr %66, align 1, !tbaa !14
  %68 = getelementptr inbounds nuw i8, ptr %.03238.i, i64 3
  store i8 %67, ptr %62, align 1, !tbaa !14
  %69 = and i32 %49, 63
  %70 = zext nneg i32 %69 to i64
  %71 = getelementptr inbounds nuw [65 x i8], ptr @data_bin2ascii, i64 0, i64 %70
  %72 = load i8, ptr %71, align 1, !tbaa !14
  store i8 %72, ptr %68, align 1, !tbaa !14
  %73 = add nsw i64 %.03039.i, -3
  %.133.i = getelementptr inbounds nuw i8, ptr %.03238.i, i64 4
  %74 = add nuw nsw i64 %.040.i, 4
  %75 = getelementptr inbounds nuw i8, ptr %.03436.i, i64 3
  %.not.i = icmp eq i64 %73, 0
  br i1 %.not.i, label %EVP_EncodeBlock.exit, label %.lr.ph.i, !llvm.loop !15

EVP_EncodeBlock.exit:                             ; preds = %42, %.thread.i
  %.032.lcssa.i = phi ptr [ %.13343.i, %.thread.i ], [ %.133.i, %42 ]
  %.0.lcssa.i = phi i64 [ %41, %.thread.i ], [ %74, %42 ]
  store i8 0, ptr %.032.lcssa.i, align 1, !tbaa !14
  %76 = trunc i64 %.0.lcssa.i to i32
  %77 = add i32 %76, 1
  %78 = and i64 %.0.lcssa.i, 4294967295
  %79 = getelementptr inbounds nuw i8, ptr %1, i64 %78
  store i8 10, ptr %79, align 1, !tbaa !14
  %80 = zext i32 %77 to i64
  %81 = getelementptr inbounds nuw i8, ptr %1, i64 %80
  store i8 0, ptr %81, align 1, !tbaa !14
  store i32 0, ptr %0, align 4, !tbaa !11
  br label %82

82:                                               ; preds = %EVP_EncodeBlock.exit, %3
  %.0 = phi i32 [ %77, %EVP_EncodeBlock.exit ], [ 0, %3 ]
  store i32 %.0, ptr %2, align 4, !tbaa !13
  ret void
}